; ModuleID = 'source-C-CXX/2/1906.cpp'
source_filename = "source-C-CXX/2/1906.cpp"
target datalayout = "e-m:e-p270:32:32-p271:32:32-p272:64:64-i64:64-f80:128-n8:16:32:64-S128"
target triple = "x86_64-pc-linux-gnu"

%"class.std::ios_base::Init" = type { i8 }
%"class.std::basic_istream" = type { i32 (...)**, i64, %"class.std::basic_ios" }
%"class.std::basic_ios" = type { %"class.std::ios_base", %"class.std::basic_ostream"*, i8, i8, %"class.std::basic_streambuf"*, %"class.std::ctype"*, %"class.std::num_put"*, %"class.std::num_get"* }
%"class.std::ios_base" = type { i32 (...)**, i64, i64, i32, i32, i32, %"struct.std::ios_base::_Callback_list"*, %"struct.std::ios_base::_Words", [8 x %"struct.std::ios_base::_Words"], i32, %"struct.std::ios_base::_Words"*, %"class.std::locale" }
%"struct.std::ios_base::_Callback_list" = type { %"struct.std::ios_base::_Callback_list"*, void (i32, %"class.std::ios_base"*, i32)*, i32, i32 }
%"struct.std::ios_base::_Words" = type { i8*, i64 }
%"class.std::locale" = type { %"class.std::locale::_Impl"* }
%"class.std::locale::_Impl" = type { i32, %"class.std::locale::facet"**, i64, %"class.std::locale::facet"**, i8** }
%"class.std::locale::facet" = type <{ i32 (...)**, i32, [4 x i8] }>
%"class.std::basic_ostream" = type { i32 (...)**, %"class.std::basic_ios" }
%"class.std::basic_streambuf" = type { i32 (...)**, i8*, i8*, i8*, i8*, i8*, i8*, %"class.std::locale" }
%"class.std::ctype" = type <{ %"class.std::locale::facet.base", [4 x i8], %struct.__locale_struct*, i8, [7 x i8], i32*, i32*, i16*, i8, [256 x i8], [256 x i8], i8, [6 x i8] }>
%"class.std::locale::facet.base" = type <{ i32 (...)**, i32 }>
%struct.__locale_struct = type { [13 x %struct.__locale_data*], i16*, i32*, i32*, [13 x i8*] }
%struct.__locale_data = type opaque
%"class.std::num_put" = type { %"class.std::locale::facet.base", [4 x i8] }
%"class.std::num_get" = type { %"class.std::locale::facet.base", [4 x i8] }

@_ZStL8__ioinit = internal global %"class.std::ios_base::Init" zeroinitializer, align 1
@__dso_handle = external hidden global i8
@_ZSt3cin = external global %"class.std::basic_istream", align 8
@_ZSt4cout = external global %"class.std::basic_ostream", align 8
@.str = private unnamed_addr constant [4 x i8] c"yes\00", align 1
@.str.1 = private unnamed_addr constant [3 x i8] c"no\00", align 1
@llvm.global_ctors = appending global [1 x { i32, void ()*, i8* }] [{ i32, void ()*, i8* } { i32 65535, void ()* @_GLOBAL__sub_I_1906.cpp, i8* null }]

declare void @_ZNSt8ios_base4InitC1Ev(%"class.std::ios_base::Init"* nonnull align 1 dereferenceable(1)) unnamed_addr #0

; Function Attrs: nounwind
declare void @_ZNSt8ios_base4InitD1Ev(%"class.std::ios_base::Init"* nonnull align 1 dereferenceable(1)) unnamed_addr #1

; Function Attrs: nofree nounwind
declare i32 @__cxa_atexit(void (i8*)*, i8*, i8*) local_unnamed_addr #2

; Function Attrs: mustprogress norecurse sspstrong uwtable
define dso_local i32 @main() local_unnamed_addr #3 {
  %1 = alloca i32, align 4
  %2 = alloca i32, align 4
  %3 = alloca [1000 x i32], align 16
  %4 = bitcast i32* %1 to i8*
  call void @llvm.lifetime.start.p0i8(i64 4, i8* nonnull %4) #7
  %5 = bitcast i32* %2 to i8*
  call void @llvm.lifetime.start.p0i8(i64 4, i8* nonnull %5) #7
  %6 = bitcast [1000 x i32]* %3 to i8*
  call void @llvm.lifetime.start.p0i8(i64 4000, i8* nonnull %6) #7
  %7 = call nonnull align 8 dereferenceable(16) %"class.std::basic_istream"* @_ZNSirsERi(%"class.std::basic_istream"* nonnull align 8 dereferenceable(16) @_ZSt3cin, i32* nonnull align 4 dereferenceable(4) %1)
  %8 = call nonnull align 8 dereferenceable(16) %"class.std::basic_istream"* @_ZNSirsERi(%"class.std::basic_istream"* nonnull align 8 dereferenceable(16) %7, i32* nonnull align 4 dereferenceable(4) %2)
  %9 = load i32, i32* %1, align 4, !tbaa !5
  %10 = icmp sgt i32 %9, 0
  br i1 %10, label %11, label %105

11:                                               ; preds = %0, %72
  %12 = phi i64 [ %74, %72 ], [ 0, %0 ]
  %13 = phi i32 [ %73, %72 ], [ 0, %0 ]
  %14 = getelementptr inbounds [1000 x i32], [1000 x i32]* %3, i64 0, i64 %12
  %15 = call nonnull align 8 dereferenceable(16) %"class.std::basic_istream"* @_ZNSirsERi(%"class.std::basic_istream"* nonnull align 8 dereferenceable(16) @_ZSt3cin, i32* nonnull align 4 dereferenceable(4) %14)
  %16 = load i32, i32* %2, align 4
  %17 = icmp eq i64 %12, 0
  br i1 %17, label %72, label %18

18:                                               ; preds = %11
  %19 = add nsw i64 %12, -1
  %20 = load i32, i32* %14, align 4, !tbaa !5
  %21 = and i64 %12, 3
  %22 = icmp ult i64 %19, 3
  br i1 %22, label %55, label %23

23:                                               ; preds = %18
  %24 = and i64 %12, 9223372036854775804
  br label %25

25:                                               ; preds = %25, %23
  %26 = phi i64 [ 0, %23 ], [ %52, %25 ]
  %27 = phi i32 [ %13, %23 ], [ %51, %25 ]
  %28 = phi i64 [ %24, %23 ], [ %53, %25 ]
  %29 = getelementptr inbounds [1000 x i32], [1000 x i32]* %3, i64 0, i64 %26
  %30 = load i32, i32* %29, align 16, !tbaa !5
  %31 = add nsw i32 %20, %30
  %32 = icmp eq i32 %31, %16
  %33 = or i64 %26, 1
  %34 = getelementptr inbounds [1000 x i32], [1000 x i32]* %3, i64 0, i64 %33
  %35 = load i32, i32* %34, align 4, !tbaa !5
  %36 = add nsw i32 %20, %35
  %37 = icmp eq i32 %36, %16
  %38 = or i64 %26, 2
  %39 = getelementptr inbounds [1000 x i32], [1000 x i32]* %3, i64 0, i64 %38
  %40 = load i32, i32* %39, align 8, !tbaa !5
  %41 = add nsw i32 %20, %40
  %42 = icmp eq i32 %41, %16
  %43 = or i64 %26, 3
  %44 = getelementptr inbounds [1000 x i32], [1000 x i32]* %3, i64 0, i64 %43
  %45 = load i32, i32* %44, align 4, !tbaa !5
  %46 = add nsw i32 %20, %45
  %47 = icmp eq i32 %46, %16
  %48 = select i1 %47, i1 true, i1 %42
  %49 = select i1 %48, i1 true, i1 %37
  %50 = select i1 %49, i1 true, i1 %32
  %51 = select i1 %50, i32 1, i32 %27
  %52 = add nuw nsw i64 %26, 4
  %53 = add i64 %28, -4
  %54 = icmp eq i64 %53, 0
  br i1 %54, label %55, label %25, !llvm.loop !9

55:                                               ; preds = %25, %18
  %56 = phi i32 [ undef, %18 ], [ %51, %25 ]
  %57 = phi i64 [ 0, %18 ], [ %52, %25 ]
  %58 = phi i32 [ %13, %18 ], [ %51, %25 ]
  %59 = icmp eq i64 %21, 0
  br i1 %59, label %72, label %60

60:                                               ; preds = %55, %60
  %61 = phi i64 [ %69, %60 ], [ %57, %55 ]
  %62 = phi i32 [ %68, %60 ], [ %58, %55 ]
  %63 = phi i64 [ %70, %60 ], [ %21, %55 ]
  %64 = getelementptr inbounds [1000 x i32], [1000 x i32]* %3, i64 0, i64 %61
  %65 = load i32, i32* %64, align 4, !tbaa !5
  %66 = add nsw i32 %20, %65
  %67 = icmp eq i32 %66, %16
  %68 = select i1 %67, i32 1, i32 %62
  %69 = add nuw nsw i64 %61, 1
  %70 = add i64 %63, -1
  %71 = icmp eq i64 %70, 0
  br i1 %71, label %72, label %60, !llvm.loop !11

72:                                               ; preds = %55, %60, %11
  %73 = phi i32 [ %13, %11 ], [ %56, %55 ], [ %68, %60 ]
  %74 = add nuw nsw i64 %12, 1
  %75 = load i32, i32* %1, align 4, !tbaa !5
  %76 = sext i32 %75 to i64
  %77 = icmp slt i64 %74, %76
  br i1 %77, label %11, label %78, !llvm.loop !13

78:                                               ; preds = %72
  %79 = icmp eq i32 %73, 1
  br i1 %79, label %80, label %105

80:                                               ; preds = %78
  %81 = call nonnull align 8 dereferenceable(8) %"class.std::basic_ostream"* @_ZSt16__ostream_insertIcSt11char_traitsIcEERSt13basic_ostreamIT_T0_ES6_PKS3_l(%"class.std::basic_ostream"* nonnull align 8 dereferenceable(8) @_ZSt4cout, i8* nonnull getelementptr inbounds ([4 x i8], [4 x i8]* @.str, i64 0, i64 0), i64 3)
  %82 = load i8*, i8** bitcast (%"class.std::basic_ostream"* @_ZSt4cout to i8**), align 8, !tbaa !14
  %83 = getelementptr i8, i8* %82, i64 -24
  %84 = bitcast i8* %83 to i64*
  %85 = load i64, i64* %84, align 8
  %86 = add nsw i64 %85, 240
  %87 = getelementptr inbounds i8, i8* bitcast (%"class.std::basic_ostream"* @_ZSt4cout to i8*), i64 %86
  %88 = bitcast i8* %87 to %"class.std::ctype"**
  %89 = load %"class.std::ctype"*, %"class.std::ctype"** %88, align 8, !tbaa !16
  %90 = icmp eq %"class.std::ctype"* %89, null
  br i1 %90, label %91, label %92

91:                                               ; preds = %80
  call void @_ZSt16__throw_bad_castv() #8
  unreachable

92:                                               ; preds = %80
  %93 = getelementptr inbounds %"class.std::ctype", %"class.std::ctype"* %89, i64 0, i32 8
  %94 = load i8, i8* %93, align 8, !tbaa !20
  %95 = icmp eq i8 %94, 0
  br i1 %95, label %99, label %96

96:                                               ; preds = %92
  %97 = getelementptr inbounds %"class.std::ctype", %"class.std::ctype"* %89, i64 0, i32 9, i64 10
  %98 = load i8, i8* %97, align 1, !tbaa !22
  br label %130

99:                                               ; preds = %92
  call void @_ZNKSt5ctypeIcE13_M_widen_initEv(%"class.std::ctype"* nonnull align 8 dereferenceable(570) %89)
  %100 = bitcast %"class.std::ctype"* %89 to i8 (%"class.std::ctype"*, i8)***
  %101 = load i8 (%"class.std::ctype"*, i8)**, i8 (%"class.std::ctype"*, i8)*** %100, align 8, !tbaa !14
  %102 = getelementptr inbounds i8 (%"class.std::ctype"*, i8)*, i8 (%"class.std::ctype"*, i8)** %101, i64 6
  %103 = load i8 (%"class.std::ctype"*, i8)*, i8 (%"class.std::ctype"*, i8)** %102, align 8
  %104 = call signext i8 %103(%"class.std::ctype"* nonnull align 8 dereferenceable(570) %89, i8 signext 10)
  br label %130

105:                                              ; preds = %0, %78
  %106 = call nonnull align 8 dereferenceable(8) %"class.std::basic_ostream"* @_ZSt16__ostream_insertIcSt11char_traitsIcEERSt13basic_ostreamIT_T0_ES6_PKS3_l(%"class.std::basic_ostream"* nonnull align 8 dereferenceable(8) @_ZSt4cout, i8* nonnull getelementptr inbounds ([3 x i8], [3 x i8]* @.str.1, i64 0, i64 0), i64 2)
  %107 = load i8*, i8** bitcast (%"class.std::basic_ostream"* @_ZSt4cout to i8**), align 8, !tbaa !14
  %108 = getelementptr i8, i8* %107, i64 -24
  %109 = bitcast i8* %108 to i64*
  %110 = load i64, i64* %109, align 8
  %111 = add nsw i64 %110, 240
  %112 = getelementptr inbounds i8, i8* bitcast (%"class.std::basic_ostream"* @_ZSt4cout to i8*), i64 %111
  %113 = bitcast i8* %112 to %"class.std::ctype"**
  %114 = load %"class.std::ctype"*, %"class.std::ctype"** %113, align 8, !tbaa !16
  %115 = icmp eq %"class.std::ctype"* %114, null
  br i1 %115, label %116, label %117

116:                                              ; preds = %105
  call void @_ZSt16__throw_bad_castv() #8
  unreachable

117:                                              ; preds = %105
  %118 = getelementptr inbounds %"class.std::ctype", %"class.std::ctype"* %114, i64 0, i32 8
  %119 = load i8, i8* %118, align 8, !tbaa !20
  %120 = icmp eq i8 %119, 0
  br i1 %120, label %124, label %121

121:                                              ; preds = %117
  %122 = getelementptr inbounds %"class.std::ctype", %"class.std::ctype"* %114, i64 0, i32 9, i64 10
  %123 = load i8, i8* %122, align 1, !tbaa !22
  br label %130

124:                                              ; preds = %117
  call void @_ZNKSt5ctypeIcE13_M_widen_initEv(%"class.std::ctype"* nonnull align 8 dereferenceable(570) %114)
  %125 = bitcast %"class.std::ctype"* %114 to i8 (%"class.std::ctype"*, i8)***
  %126 = load i8 (%"class.std::ctype"*, i8)**, i8 (%"class.std::ctype"*, i8)*** %125, align 8, !tbaa !14
  %127 = getelementptr inbounds i8 (%"class.std::ctype"*, i8)*, i8 (%"class.std::ctype"*, i8)** %126, i64 6
  %128 = load i8 (%"class.std::ctype"*, i8)*, i8 (%"class.std::ctype"*, i8)** %127, align 8
  %129 = call signext i8 %128(%"class.std::ctype"* nonnull align 8 dereferenceable(570) %114, i8 signext 10)
  br label %130

130:                                              ; preds = %124, %121, %99, %96
  %131 = phi i8 [ %98, %96 ], [ %104, %99 ], [ %123, %121 ], [ %129, %124 ]
  %132 = call nonnull align 8 dereferenceable(8) %"class.std::basic_ostream"* @_ZNSo3putEc(%"class.std::basic_ostream"* nonnull align 8 dereferenceable(8) @_ZSt4cout, i8 signext %131)
  %133 = call nonnull align 8 dereferenceable(8) %"class.std::basic_ostream"* @_ZNSo5flushEv(%"class.std::basic_ostream"* nonnull align 8 dereferenceable(8) %132)
  call void @llvm.lifetime.end.p0i8(i64 4000, i8* nonnull %6) #7
  call void @llvm.lifetime.end.p0i8(i64 4, i8* nonnull %5) #7
  call void @llvm.lifetime.end.p0i8(i64 4, i8* nonnull %4) #7
  ret i32 0
}

; Function Attrs: argmemonly mustprogress nofree nosync nounwind willreturn
declare void @llvm.lifetime.start.p0i8(i64 immarg, i8* nocapture) #4

declare nonnull align 8 dereferenceable(16) %"class.std::basic_istream"* @_ZNSirsERi(%"class.std::basic_istream"* nonnull align 8 dereferenceable(16), i32* nonnull align 4 dereferenceable(4)) local_unnamed_addr #0

; Function Attrs: argmemonly mustprogress nofree nosync nounwind willreturn
declare void @llvm.lifetime.end.p0i8(i64 immarg, i8* nocapture) #4

declare nonnull align 8 dereferenceable(8) %"class.std::basic_ostream"* @_ZSt16__ostream_insertIcSt11char_traitsIcEERSt13basic_ostreamIT_T0_ES6_PKS3_l(%"class.std::basic_ostream"* nonnull align 8 dereferenceable(8), i8*, i64) local_unnamed_addr #0

declare nonnull align 8 dereferenceable(8) %"class.std::basic_ostream"* @_ZNSo3putEc(%"class.std::basic_ostream"* nonnull align 8 dereferenceable(8), i8 signext) local_unnamed_addr #0

declare nonnull align 8 dereferenceable(8) %"class.std::basic_ostream"* @_ZNSo5flushEv(%"class.std::basic_ostream"* nonnull align 8 dereferenceable(8)) local_unnamed_addr #0

; Function Attrs: noreturn
declare void @_ZSt16__throw_bad_castv() local_unnamed_addr #5

declare void @_ZNKSt5ctypeIcE13_M_widen_initEv(%"class.std::ctype"* nonnull align 8 dereferenceable(570)) local_unnamed_addr #0

; Function Attrs: sspstrong uwtable
define internal void @_GLOBAL__sub_I_1906.cpp() #6 section ".text.startup" {
  tail call void @_ZNSt8ios_base4InitC1Ev(%"class.std::ios_base::Init"* nonnull align 1 dereferenceable(1) @_ZStL8__ioinit)
  %1 = tail call i32 @__cxa_atexit(void (i8*)* bitcast (void (%"class.std::ios_base::Init"*)* @_ZNSt8ios_base4InitD1Ev to void (i8*)*), i8* getelementptr inbounds (%"class.std::ios_base::Init", %"class.std::ios_base::Init"* @_ZStL8__ioinit, i64 0, i32 0), i8* nonnull @__dso_handle) #7
  ret void
}


!llvm.module.flags = !{!0, !1, !2, !3}
!llvm.ident = !{!4}

!0 = !{i32 1, !"wchar_size", i32 4}
!1 = !{i32 7, !"PIC Level", i32 2}
!2 = !{i32 7, !"PIE Level", i32 2}
!3 = !{i32 7, !"uwtable", i32 1}
!4 = !{!"clang version 13.0.0"}
!5 = !{!6, !6, i64 0}
!6 = !{!"int", !7, i64 0}
!7 = !{!"omnipotent char", !8, i64 0}
!8 = !{!"Simple C++ TBAA"}
!9 = distinct !{!9, !10}
!10 = !{!"llvm.loop.mustprogress"}
!11 = distinct !{!11, !12}
!12 = !{!"llvm.loop.unroll.disable"}
!13 = distinct !{!13, !10}
!14 = !{!15, !15, i64 0}
!15 = !{!"vtable pointer", !8, i64 0}
!16 = !{!17, !18, i64 240}
!17 = !{!"_ZTSSt9basic_iosIcSt11char_traitsIcEE", !18, i64 216, !7, i64 224, !19, i64 225, !18, i64 232, !18, i64 240, !18, i64 248, !18, i64 256}
!18 = !{!"any pointer", !7, i64 0}
!19 = !{!"bool", !7, i64 0}
!20 = !{!21, !7, i64 56}
!21 = !{!"_ZTSSt5ctypeIcE", !18, i64 16, !19, i64 24, !18, i64 32, !18, i64 40, !18, i64 48, !7, i64 56, !7, i64 57, !7, i64 313, !7, i64 569}
!22 = !{!7, !7, i64 0}
